target datalayout = "e-m:e-p270:32:32-p271:32:32-p272:64:64-i64:64-i128:128-f80:128-n8:16:32:64-S128"
target triple = "x86_64-pc-linux-gnu"

@.str.28 = private unnamed_addr constant [24 x i8] c"table is already frozen\00", align 1
@.str.29 = private unnamed_addr constant [12 x i8] c"__metatable\00", align 1
@.str.30 = private unnamed_addr constant [32 x i8] c"table has a protected metatable\00", align 1

; Function Attrs: mustprogress uwtable
define internal noundef i32 @_ZL7tfreezeP9lua_State(ptr noundef %0) #0 {
  %2 = alloca ptr, align 8
  store ptr %0, ptr %2, align 8, !tbaa !4
  %3 = load ptr, ptr %2, align 8, !tbaa !4
  call void @_Z14luaL_checktypeP9lua_Stateii(ptr noundef %3, i32 noundef 1, i32 noundef 6)
  %4 = load ptr, ptr %2, align 8, !tbaa !4
  %5 = call noundef i32 @_Z15lua_getreadonlyP9lua_Statei(ptr noundef %4, i32 noundef 1)
  %6 = icmp ne i32 %5, 0
  br i1 %6, label %8, label %7

7:                                                ; preds = %1
  br label %11

8:                                                ; preds = %1
  %9 = load ptr, ptr %2, align 8, !tbaa !4
  call void @_Z14luaL_argerrorLP9lua_StateiPKc(ptr noundef %9, i32 noundef 1, ptr noundef @.str.28) #8
  unreachable

10:                                               ; No predecessors!
  br label %11

11:                                               ; preds = %10, %7
  %12 = load ptr, ptr %2, align 8, !tbaa !4
  %13 = call noundef i32 @_Z17luaL_getmetafieldP9lua_StateiPKc(ptr noundef %12, i32 noundef 1, ptr noundef @.str.29)
  %14 = icmp ne i32 %13, 0
  br i1 %14, label %16, label %15

15:                                               ; preds = %11
  br label %19

16:                                               ; preds = %11
  %17 = load ptr, ptr %2, align 8, !tbaa !4
  call void @_Z14luaL_argerrorLP9lua_StateiPKc(ptr noundef %17, i32 noundef 1, ptr noundef @.str.30) #8
  unreachable

18:                                               ; No predecessors!
  br label %19

19:                                               ; preds = %18, %15
  %20 = load ptr, ptr %2, align 8, !tbaa !4
  call void @_Z15lua_setreadonlyP9lua_Stateii(ptr noundef %20, i32 noundef 1, i32 noundef 1)
  %21 = load ptr, ptr %2, align 8, !tbaa !4
  call void @_Z13lua_pushvalueP9lua_Statei(ptr noundef %21, i32 noundef 1)
  ret i32 1
}