; Function Attrs: mustprogress uwtable
define internal noundef i32 @_ZL7tfreezeP9lua_State(ptr noundef %0) #0 {
  tail call void @_Z14luaL_checktypeP9lua_Stateii(ptr noundef %0, i32 noundef 1, i32 noundef 6)
  %2 = tail call noundef i32 @_Z15lua_getreadonlyP9lua_Statei(ptr noundef %0, i32 noundef 1)
  %.not = icmp eq i32 %2, 0
  br i1 %.not, label %4, label %3

3:                                                ; preds = %1
  tail call void @_Z14luaL_argerrorLP9lua_StateiPKc(ptr noundef %0, i32 noundef 1, ptr noundef nonnull @.str.28) #6
  unreachable

4:                                                ; preds = %1
  %5 = tail call noundef i32 @_Z17luaL_getmetafieldP9lua_StateiPKc(ptr noundef %0, i32 noundef 1, ptr noundef nonnull @.str.29)
  %.not7 = icmp eq i32 %5, 0
  br i1 %.not7, label %7, label %6

6:                                                ; preds = %4
  tail call void @_Z14luaL_argerrorLP9lua_StateiPKc(ptr noundef %0, i32 noundef 1, ptr noundef nonnull @.str.30) #6
  unreachable

7:                                                ; preds = %4
  tail call void @_Z15lua_setreadonlyP9lua_Stateii(ptr noundef %0, i32 noundef 1, i32 noundef 1)
  tail call void @_Z13lua_pushvalueP9lua_Statei(ptr noundef %0, i32 noundef 1)
  ret i32 1
}